(lp0
(dp1
S'note'
p2
S'Hello World'
p3
sS'name'
p4
S'mike'
p5
sS'id'
p6
S'7189a210-b671-4928-abb4-3baebf189f29'
p7
sa(dp8
S'note'
p9
S'Hi Mike, why are you saying Hello World'
p10
sS'name'
p11
S'george'
p12
sS'id'
p13
S'aeb6f2dc-71a1-491d-9d5f-6b5d043633ca'
p14
sa.